target datalayout = "e-m:e-p270:32:32-p271:32:32-p272:64:64-i64:64-i128:128-f80:128-n8:16:32:64-S128"
target triple = "x86_64-pc-linux-gnu"

@_ZN7VM_Exit10_vm_exitedE = external global i8, align 1

; Function Attrs: mustprogress nounwind uwtable
define linkonce_odr hidden void @_ZN12CHeapObjBasedlEPv(ptr noundef %0) #1 comdat align 2 {
  %2 = alloca ptr, align 8
  store ptr %0, ptr %2, align 8
  %3 = load ptr, ptr %2, align 8
  call void @_Z8FreeHeapPv(ptr noundef %3)
  ret void
}

; Function Attrs: mustprogress nounwind uwtable
define linkonce_odr hidden void @_ZN8CHeapObjIL8MEMFLAGS22EEdlEPv(ptr noundef %0) #1 comdat align 2 {
  %2 = alloca ptr, align 8
  store ptr %0, ptr %2, align 8
  %3 = load ptr, ptr %2, align 8
  call void @_ZN12CHeapObjBasedlEPv(ptr noundef %3) #6
  ret void
}

; Function Attrs: mustprogress nounwind uwtable
define linkonce_odr hidden void @_ZN7VM_Exit18block_if_vm_exitedEv() #1 comdat align 2 {
  %1 = load volatile i8, ptr @_ZN7VM_Exit10_vm_exitedE, align 1
  %2 = trunc i8 %1 to i1
  br i1 %2, label %3, label %4

3:                                                ; preds = %0
  call void @_ZN7VM_Exit17wait_if_vm_exitedEv()
  br label %4

4:                                                ; preds = %3, %0
  ret void
}

; Function Attrs: mustprogress nounwind uwtable
define void @JVM_RawMonitorDestroy(ptr noundef %0) #1 {
  %2 = alloca ptr, align 8
  store ptr %0, ptr %2, align 8
  call void @_ZN7VM_Exit18block_if_vm_exitedEv()
  %3 = load ptr, ptr %2, align 8
  %4 = icmp eq ptr %3, null
  br i1 %4, label %6, label %5

5:                                                ; preds = %1
  call void @_ZN13PlatformMutexD1Ev(ptr noundef nonnull align 8 dereferenceable(40) %3) #6
  call void @_ZN8CHeapObjIL8MEMFLAGS22EEdlEPv(ptr noundef %3) #6
  br label %6

6:                                                ; preds = %5, %1
  ret void
}