; Function Attrs: mustprogress nounwind uwtable
define void @JVM_RawMonitorDestroy(ptr noundef %0) local_unnamed_addr #0 {
  %2 = load volatile i8, ptr @_ZN7VM_Exit10_vm_exitedE, align 1
  %3 = trunc i8 %2 to i1
  br i1 %3, label %4, label %_ZN7VM_Exit18block_if_vm_exitedEv.exit

4:                                                ; preds = %1
  tail call void @_ZN7VM_Exit17wait_if_vm_exitedEv() #16
  br label %_ZN7VM_Exit18block_if_vm_exitedEv.exit

_ZN7VM_Exit18block_if_vm_exitedEv.exit:           ; preds = %1, %4
  %5 = icmp eq ptr %0, null
  br i1 %5, label %7, label %6

6:                                                ; preds = %_ZN7VM_Exit18block_if_vm_exitedEv.exit
  tail call void @_ZN13PlatformMutexD1Ev(ptr noundef nonnull align 8 dereferenceable(40) %0) #16
  tail call void @_Z8FreeHeapPv(ptr noundef nonnull %0) #16
  br label %7

7:                                                ; preds = %6, %_ZN7VM_Exit18block_if_vm_exitedEv.exit
  ret void
}